; ModuleID = '54/438.c'
source_filename = "54/438.c"
target datalayout = "e-m:e-p270:32:32-p271:32:32-p272:64:64-i64:64-f80:128-n8:16:32:64-S128"
target triple = "x86_64-pc-linux-gnu"

@.str = private unnamed_addr constant [5 x i8] c"%d%d\00", align 1
@.str.1 = private unnamed_addr constant [4 x i8] c"%d\0A\00", align 1

; Function Attrs: noinline nounwind uwtable
define dso_local void @main() #0 {
  %1 = alloca i32, align 4
  %2 = alloca i32, align 4
  %3 = alloca i32, align 4
  %4 = alloca i32, align 4
  %5 = alloca i32, align 4
  %6 = call i32 (i8*, ...) @__isoc99_scanf(i8* getelementptr inbounds ([5 x i8], [5 x i8]* @.str, i64 0, i64 0), i32* %3, i32* %2)
  store i32 2, i32* %1, align 4
  br label %7

7:                                                ; preds = %48, %0
  %8 = load i32, i32* %1, align 4
  store i32 %8, i32* %4, align 4
  store i32 1, i32* %5, align 4
  br label %9

9:                                                ; preds = %36, %7
  %10 = load i32, i32* %5, align 4
  %11 = load i32, i32* %3, align 4
  %12 = icmp sle i32 %10, %11
  br i1 %12, label %13, label %39

13:                                               ; preds = %9
  %14 = load i32, i32* %4, align 4
  %15 = load i32, i32* %2, align 4
  %16 = sub nsw i32 %14, %15
  %17 = load i32, i32* %3, align 4
  %18 = srem i32 %16, %17
  %19 = icmp ne i32 %18, 0
  br i1 %19, label %25, label %20

20:                                               ; preds = %13
  %21 = load i32, i32* %4, align 4
  %22 = load i32, i32* %2, align 4
  %23 = sub nsw i32 %21, %22
  %24 = icmp sle i32 %23, 0
  br i1 %24, label %25, label %26

25:                                               ; preds = %20, %13
  br label %39

26:                                               ; preds = %20
  %27 = load i32, i32* %4, align 4
  %28 = load i32, i32* %4, align 4
  %29 = load i32, i32* %2, align 4
  %30 = sub nsw i32 %28, %29
  %31 = load i32, i32* %3, align 4
  %32 = sdiv i32 %30, %31
  %33 = sub nsw i32 %27, %32
  %34 = load i32, i32* %2, align 4
  %35 = sub nsw i32 %33, %34
  store i32 %35, i32* %4, align 4
  br label %36

36:                                               ; preds = %26
  %37 = load i32, i32* %5, align 4
  %38 = add nsw i32 %37, 1
  store i32 %38, i32* %5, align 4
  br label %9

39:                                               ; preds = %25, %9
  %40 = load i32, i32* %5, align 4
  %41 = load i32, i32* %3, align 4
  %42 = add nsw i32 %41, 1
  %43 = icmp sge i32 %40, %42
  br i1 %43, label %44, label %47

44:                                               ; preds = %39
  %45 = load i32, i32* %1, align 4
  %46 = call i32 (i8*, ...) @printf(i8* getelementptr inbounds ([4 x i8], [4 x i8]* @.str.1, i64 0, i64 0), i32 %45)
  br label %51

47:                                               ; preds = %39
  br label %48

48:                                               ; preds = %47
  %49 = load i32, i32* %1, align 4
  %50 = add nsw i32 %49, 1
  store i32 %50, i32* %1, align 4
  br label %7

51:                                               ; preds = %44
  ret void
}

declare dso_local i32 @__isoc99_scanf(i8*, ...) #1

declare dso_local i32 @printf(i8*, ...) #1


!llvm.module.flags = !{!0}
!llvm.ident = !{!1}

!0 = !{i32 1, !"wchar_size", i32 4}
!1 = !{!"clang version 10.0.0-4ubuntu1 "}
